; Function Attrs: mustprogress uwtable
define hidden void @_ZN11scoped_mark5resetEv(ptr noundef nonnull align 8 captures(none) dereferenceable(80) initializes((16, 20), (40, 44)) %0) unnamed_addr #7 align 2 {
  %2 = getelementptr inbounds nuw i8, ptr %0, i64 48
  %3 = load ptr, ptr %2, align 8, !tbaa !376
  %.not.i.i.i = icmp eq ptr %3, null
  br i1 %.not.i.i.i, label %_ZN8obj_markI4decl10bit_vectorN8ast_mark9decl2uintEE5resetEv.exit.i, label %4

4:                                                ; preds = %1
  %5 = getelementptr inbounds nuw i8, ptr %0, i64 44
  %6 = load i32, ptr %5, align 4, !tbaa !546
  %7 = zext i32 %6 to i64
  %8 = shl nuw nsw i64 %7, 2
  tail call void @llvm.memset.p0.i64(ptr nonnull align 4 %3, i8 0, i64 %8, i1 false)
  br label %_ZN8obj_markI4decl10bit_vectorN8ast_mark9decl2uintEE5resetEv.exit.i

_ZN8obj_markI4decl10bit_vectorN8ast_mark9decl2uintEE5resetEv.exit.i: ; preds = %4, %1
  %9 = getelementptr inbounds nuw i8, ptr %0, i64 40
  store i32 0, ptr %9, align 8, !tbaa !374
  %10 = getelementptr inbounds nuw i8, ptr %0, i64 24
  %11 = load ptr, ptr %10, align 8, !tbaa !376
  %.not.i.i1.i = icmp eq ptr %11, null
  br i1 %.not.i.i1.i, label %_ZN8ast_mark5resetEv.exit, label %12

12:                                               ; preds = %_ZN8obj_markI4decl10bit_vectorN8ast_mark9decl2uintEE5resetEv.exit.i
  %13 = getelementptr inbounds nuw i8, ptr %0, i64 20
  %14 = load i32, ptr %13, align 4, !tbaa !546
  %15 = zext i32 %14 to i64
  %16 = shl nuw nsw i64 %15, 2
  tail call void @llvm.memset.p0.i64(ptr nonnull align 4 %11, i8 0, i64 %16, i1 false)
  br label %_ZN8ast_mark5resetEv.exit

_ZN8ast_mark5resetEv.exit:                        ; preds = %_ZN8obj_markI4decl10bit_vectorN8ast_mark9decl2uintEE5resetEv.exit.i, %12
  %17 = getelementptr inbounds nuw i8, ptr %0, i64 16
  store i32 0, ptr %17, align 8, !tbaa !374
  %18 = getelementptr inbounds nuw i8, ptr %0, i64 56
  %19 = getelementptr inbounds nuw i8, ptr %0, i64 64
  %20 = load ptr, ptr %19, align 8, !tbaa !397
  %21 = icmp eq ptr %20, null
  br i1 %21, label %_ZN15ref_vector_coreI3ast19ref_manager_wrapperIS0_11ast_managerEE5resetEv.exit, label %_ZNK6vectorIP3astLb0EjE4sizeEv.exit.i

_ZNK6vectorIP3astLb0EjE4sizeEv.exit.i:            ; preds = %_ZN8ast_mark5resetEv.exit
  %22 = getelementptr inbounds i8, ptr %20, i64 -4
  %23 = load i32, ptr %22, align 4, !tbaa !24
  %24 = zext i32 %23 to i64
  %25 = getelementptr inbounds nuw ptr, ptr %20, i64 %24
  %.not.i = icmp eq i32 %23, 0
  br i1 %.not.i, label %_ZN15ref_vector_coreI3ast19ref_manager_wrapperIS0_11ast_managerEE13dec_range_refEPKPS0_S7_.exit.thread4.i, label %.lr.ph.i.i

.lr.ph.i.i:                                       ; preds = %_ZNK6vectorIP3astLb0EjE4sizeEv.exit.i, %_ZN15ref_vector_coreI3ast19ref_manager_wrapperIS0_11ast_managerEE7dec_refEPS0_.exit.i.i
  %.06.i.i = phi ptr [ %34, %_ZN15ref_vector_coreI3ast19ref_manager_wrapperIS0_11ast_managerEE7dec_refEPS0_.exit.i.i ], [ %20, %_ZNK6vectorIP3astLb0EjE4sizeEv.exit.i ]
  %26 = load ptr, ptr %.06.i.i, align 8, !tbaa !29
  %27 = load ptr, ptr %18, align 8, !tbaa !547
  %.not.i.i.i.i.i = icmp eq ptr %26, null
  br i1 %.not.i.i.i.i.i, label %_ZN15ref_vector_coreI3ast19ref_manager_wrapperIS0_11ast_managerEE7dec_refEPS0_.exit.i.i, label %28

28:                                               ; preds = %.lr.ph.i.i
  %29 = getelementptr inbounds nuw i8, ptr %26, i64 8
  %30 = load i32, ptr %29, align 4, !tbaa !31
  %31 = add i32 %30, -1
  store i32 %31, ptr %29, align 4, !tbaa !31
  %32 = icmp eq i32 %31, 0
  br i1 %32, label %33, label %_ZN15ref_vector_coreI3ast19ref_manager_wrapperIS0_11ast_managerEE7dec_refEPS0_.exit.i.i

33:                                               ; preds = %28
  tail call void @_ZN11ast_manager11delete_nodeEP3ast(ptr noundef nonnull align 8 dereferenceable(976) %27, ptr noundef nonnull %26)
  br label %_ZN15ref_vector_coreI3ast19ref_manager_wrapperIS0_11ast_managerEE7dec_refEPS0_.exit.i.i

_ZN15ref_vector_coreI3ast19ref_manager_wrapperIS0_11ast_managerEE7dec_refEPS0_.exit.i.i: ; preds = %33, %28, %.lr.ph.i.i
  %34 = getelementptr inbounds nuw i8, ptr %.06.i.i, i64 8
  %35 = icmp ult ptr %34, %25
  br i1 %35, label %.lr.ph.i.i, label %_ZN15ref_vector_coreI3ast19ref_manager_wrapperIS0_11ast_managerEE13dec_range_refEPKPS0_S7_.exit.i, !llvm.loop !549

_ZN15ref_vector_coreI3ast19ref_manager_wrapperIS0_11ast_managerEE13dec_range_refEPKPS0_S7_.exit.i: ; preds = %_ZN15ref_vector_coreI3ast19ref_manager_wrapperIS0_11ast_managerEE7dec_refEPS0_.exit.i.i
  %.pre.i = load ptr, ptr %19, align 8, !tbaa !397
  %.not.i.i = icmp eq ptr %.pre.i, null
  br i1 %.not.i.i, label %_ZN15ref_vector_coreI3ast19ref_manager_wrapperIS0_11ast_managerEE5resetEv.exit, label %_ZN15ref_vector_coreI3ast19ref_manager_wrapperIS0_11ast_managerEE13dec_range_refEPKPS0_S7_.exit.thread4.i

_ZN15ref_vector_coreI3ast19ref_manager_wrapperIS0_11ast_managerEE13dec_range_refEPKPS0_S7_.exit.thread4.i: ; preds = %_ZN15ref_vector_coreI3ast19ref_manager_wrapperIS0_11ast_managerEE13dec_range_refEPKPS0_S7_.exit.i, %_ZNK6vectorIP3astLb0EjE4sizeEv.exit.i
  %36 = phi ptr [ %.pre.i, %_ZN15ref_vector_coreI3ast19ref_manager_wrapperIS0_11ast_managerEE13dec_range_refEPKPS0_S7_.exit.i ], [ %20, %_ZNK6vectorIP3astLb0EjE4sizeEv.exit.i ]
  %37 = getelementptr inbounds i8, ptr %36, i64 -4
  store i32 0, ptr %37, align 4, !tbaa !24
  br label %_ZN15ref_vector_coreI3ast19ref_manager_wrapperIS0_11ast_managerEE5resetEv.exit

_ZN15ref_vector_coreI3ast19ref_manager_wrapperIS0_11ast_managerEE5resetEv.exit: ; preds = %_ZN8ast_mark5resetEv.exit, %_ZN15ref_vector_coreI3ast19ref_manager_wrapperIS0_11ast_managerEE13dec_range_refEPKPS0_S7_.exit.i, %_ZN15ref_vector_coreI3ast19ref_manager_wrapperIS0_11ast_managerEE13dec_range_refEPKPS0_S7_.exit.thread4.i
  %38 = getelementptr inbounds nuw i8, ptr %0, i64 72
  %39 = load ptr, ptr %38, align 8, !tbaa !335
  %.not.i1 = icmp eq ptr %39, null
  br i1 %.not.i1, label %_ZN6vectorIjLb0EjE5resetEv.exit, label %40

40:                                               ; preds = %_ZN15ref_vector_coreI3ast19ref_manager_wrapperIS0_11ast_managerEE5resetEv.exit
  %41 = getelementptr inbounds i8, ptr %39, i64 -4
  store i32 0, ptr %41, align 4, !tbaa !24
  br label %_ZN6vectorIjLb0EjE5resetEv.exit

_ZN6vectorIjLb0EjE5resetEv.exit:                  ; preds = %_ZN15ref_vector_coreI3ast19ref_manager_wrapperIS0_11ast_managerEE5resetEv.exit, %40
  ret void
}